
chb_test_simple.elf:     file format elf32-littleriscv


Disassembly of section .text:

00004000 <_app_start>:
    4000:	0001b117          	auipc	sp,0x1b
    4004:	00010113          	mv	sp,sp
    4008:	00001197          	auipc	gp,0x1
    400c:	da818193          	addi	gp,gp,-600 # 4db0 <__global_pointer$>
    4010:	00000517          	auipc	a0,0x0
    4014:	5a050513          	addi	a0,a0,1440 # 45b0 <_etext>
    4018:	0000c597          	auipc	a1,0xc
    401c:	fe858593          	addi	a1,a1,-24 # 10000 <_bss_end>
    4020:	0000c617          	auipc	a2,0xc
    4024:	fe060613          	addi	a2,a2,-32 # 10000 <_bss_end>
    4028:	00c58c63          	beq	a1,a2,4040 <_app_start+0x40>
    402c:	00052283          	lw	t0,0(a0)
    4030:	0055a023          	sw	t0,0(a1)
    4034:	00450513          	addi	a0,a0,4
    4038:	00458593          	addi	a1,a1,4
    403c:	fedff06f          	j	4028 <_app_start+0x28>
    4040:	0000c517          	auipc	a0,0xc
    4044:	fc050513          	addi	a0,a0,-64 # 10000 <_bss_end>
    4048:	0000c597          	auipc	a1,0xc
    404c:	fb858593          	addi	a1,a1,-72 # 10000 <_bss_end>
    4050:	00b50863          	beq	a0,a1,4060 <_app_start+0x60>
    4054:	00052023          	sw	zero,0(a0)
    4058:	00450513          	addi	a0,a0,4
    405c:	ff5ff06f          	j	4050 <_app_start+0x50>
    4060:	048000ef          	jal	40a8 <main>
    4064:	10500073          	wfi
    4068:	ffdff06f          	j	4064 <_app_start+0x64>

0000406c <_exception_handler>:
    406c:	30200073          	mret

00004070 <uart_puts>:
    4070:	00054683          	lbu	a3,0(a0)
    4074:	02068863          	beqz	a3,40a4 <uart_puts+0x34>
    4078:	00020737          	lui	a4,0x20
    407c:	00020637          	lui	a2,0x20
    4080:	50470713          	addi	a4,a4,1284 # 20504 <_end+0x1504>
    4084:	50060613          	addi	a2,a2,1280 # 20500 <_end+0x1500>
    4088:	00150513          	addi	a0,a0,1
    408c:	00072783          	lw	a5,0(a4)
    4090:	0027f793          	andi	a5,a5,2
    4094:	fe078ce3          	beqz	a5,408c <uart_puts+0x1c>
    4098:	00d62023          	sw	a3,0(a2)
    409c:	00054683          	lbu	a3,0(a0)
    40a0:	fe0694e3          	bnez	a3,4088 <uart_puts+0x18>
    40a4:	00008067          	ret

000040a8 <main>:
    40a8:	fb010113          	addi	sp,sp,-80 # 1efb0 <_heap_end+0xfb0>
    40ac:	04812423          	sw	s0,72(sp)
    40b0:	00004437          	lui	s0,0x4
    40b4:	4b040513          	addi	a0,s0,1200 # 44b0 <main+0x408>
    40b8:	04112623          	sw	ra,76(sp)
    40bc:	04912223          	sw	s1,68(sp)
    40c0:	05212023          	sw	s2,64(sp)
    40c4:	000044b7          	lui	s1,0x4
    40c8:	03312e23          	sw	s3,60(sp)
    40cc:	03412c23          	sw	s4,56(sp)
    40d0:	03512a23          	sw	s5,52(sp)
    40d4:	03612823          	sw	s6,48(sp)
    40d8:	03712623          	sw	s7,44(sp)
    40dc:	03812423          	sw	s8,40(sp)
    40e0:	03912223          	sw	s9,36(sp)
    40e4:	03a12023          	sw	s10,32(sp)
    40e8:	01b12e23          	sw	s11,28(sp)
    40ec:	f85ff0ef          	jal	4070 <uart_puts>
    40f0:	4b448513          	addi	a0,s1,1204 # 44b4 <main+0x40c>
    40f4:	f7dff0ef          	jal	4070 <uart_puts>
    40f8:	00004537          	lui	a0,0x4
    40fc:	4e450513          	addi	a0,a0,1252 # 44e4 <main+0x43c>
    4100:	f71ff0ef          	jal	4070 <uart_puts>
    4104:	00004537          	lui	a0,0x4
    4108:	50450513          	addi	a0,a0,1284 # 4504 <main+0x45c>
    410c:	f65ff0ef          	jal	4070 <uart_puts>
    4110:	4b448513          	addi	a0,s1,1204
    4114:	f5dff0ef          	jal	4070 <uart_puts>
    4118:	00004537          	lui	a0,0x4
    411c:	52850513          	addi	a0,a0,1320 # 4528 <main+0x480>
    4120:	f51ff0ef          	jal	4070 <uart_puts>
    4124:	00004537          	lui	a0,0x4
    4128:	54850513          	addi	a0,a0,1352 # 4548 <main+0x4a0>
    412c:	f45ff0ef          	jal	4070 <uart_puts>
    4130:	4b040513          	addi	a0,s0,1200
    4134:	f3dff0ef          	jal	4070 <uart_puts>
    4138:	00f00713          	li	a4,15
    413c:	000207b7          	lui	a5,0x20
    4140:	000204b7          	lui	s1,0x20
    4144:	40e7a023          	sw	a4,1024(a5) # 20400 <_end+0x1400>
    4148:	00100c13          	li	s8,1
    414c:	000027b7          	lui	a5,0x2
    4150:	0184a023          	sw	s8,0(s1) # 20000 <_end+0x1000>
    4154:	71078793          	addi	a5,a5,1808 # 2710 <_app_start-0x18f0>
    4158:	00f4a223          	sw	a5,4(s1)
    415c:	06400b93          	li	s7,100
    4160:	00004537          	lui	a0,0x4
    4164:	57450513          	addi	a0,a0,1396 # 4574 <main+0x4cc>
    4168:	0174aa23          	sw	s7,20(s1)
    416c:	f05ff0ef          	jal	4070 <uart_puts>
    4170:	00004537          	lui	a0,0x4
    4174:	59050513          	addi	a0,a0,1424 # 4590 <main+0x4e8>
    4178:	ef9ff0ef          	jal	4070 <uart_puts>
    417c:	00004437          	lui	s0,0x4
    4180:	000043b7          	lui	t2,0x4
    4184:	000042b7          	lui	t0,0x4
    4188:	00004337          	lui	t1,0x4
    418c:	00004e37          	lui	t3,0x4
    4190:	00004d37          	lui	s10,0x4
    4194:	51eb8ab7          	lui	s5,0x51eb8
    4198:	10625a37          	lui	s4,0x10625
    419c:	0000c5b7          	lui	a1,0xc
    41a0:	3afb89b7          	lui	s3,0x3afb8
    41a4:	00069937          	lui	s2,0x69
    41a8:	000c0813          	mv	a6,s8
    41ac:	47a40413          	addi	s0,s0,1146 # 447a <main+0x3d2>
    41b0:	48238393          	addi	t2,t2,1154 # 4482 <main+0x3da>
    41b4:	48a28293          	addi	t0,t0,1162 # 448a <main+0x3e2>
    41b8:	49e30313          	addi	t1,t1,1182 # 449e <main+0x3f6>
    41bc:	4a4e0e13          	addi	t3,t3,1188 # 44a4 <main+0x3fc>
    41c0:	4afd0d13          	addi	s10,s10,1199 # 44af <main+0x407>
    41c4:	40448b13          	addi	s6,s1,1028
    41c8:	51fa8a93          	addi	s5,s5,1311 # 51eb851f <_end+0x51e9951f>
    41cc:	dd3a0a13          	addi	s4,s4,-557 # 10624dd3 <_end+0x10605dd3>
    41d0:	50448793          	addi	a5,s1,1284
    41d4:	50048693          	addi	a3,s1,1280
    41d8:	34f58593          	addi	a1,a1,847 # c34f <__global_pointer$+0x759f>
    41dc:	e9198993          	addi	s3,s3,-367 # 3afb7e91 <_end+0x3af98e91>
    41e0:	db890913          	addi	s2,s2,-584 # 68db8 <_end+0x49db8>
    41e4:	20048d93          	addi	s11,s1,512
    41e8:	00000513          	li	a0,0
    41ec:	28f00c93          	li	s9,655
    41f0:	3e800c13          	li	s8,1000
    41f4:	00900f93          	li	t6,9
    41f8:	ffc00f13          	li	t5,-4
    41fc:	03553633          	mulhu	a2,a0,s5
    4200:	010b2023          	sw	a6,0(s6)
    4204:	00385713          	srli	a4,a6,0x3
    4208:	00181813          	slli	a6,a6,0x1
    420c:	01076733          	or	a4,a4,a6
    4210:	00f77813          	andi	a6,a4,15
    4214:	00565613          	srli	a2,a2,0x5
    4218:	03760633          	mul	a2,a2,s7
    421c:	03453733          	mulhu	a4,a0,s4
    4220:	40c50633          	sub	a2,a0,a2
    4224:	03960633          	mul	a2,a2,s9
    4228:	00675713          	srli	a4,a4,0x6
    422c:	03870733          	mul	a4,a4,s8
    4230:	01061613          	slli	a2,a2,0x10
    4234:	01065613          	srli	a2,a2,0x10
    4238:	00c4a423          	sw	a2,8(s1)
    423c:	08e50e63          	beq	a0,a4,42d8 <main+0x230>
    4240:	00012623          	sw	zero,12(sp)
    4244:	00c12703          	lw	a4,12(sp)
    4248:	00e5ee63          	bltu	a1,a4,4264 <main+0x1bc>
    424c:	00000013          	nop
    4250:	00c12703          	lw	a4,12(sp)
    4254:	00170713          	addi	a4,a4,1
    4258:	00e12623          	sw	a4,12(sp)
    425c:	00c12703          	lw	a4,12(sp)
    4260:	fee5f6e3          	bgeu	a1,a4,424c <main+0x1a4>
    4264:	00150513          	addi	a0,a0,1
    4268:	03350733          	mul	a4,a0,s3
    426c:	00475613          	srli	a2,a4,0x4
    4270:	01c71713          	slli	a4,a4,0x1c
    4274:	00e60733          	add	a4,a2,a4
    4278:	f8e962e3          	bltu	s2,a4,41fc <main+0x154>
    427c:	00004737          	lui	a4,0x4
    4280:	05000893          	li	a7,80
    4284:	48c70613          	addi	a2,a4,1164 # 448c <main+0x3e4>
    4288:	00160613          	addi	a2,a2,1
    428c:	0007a703          	lw	a4,0(a5)
    4290:	00277713          	andi	a4,a4,2
    4294:	fe070ce3          	beqz	a4,428c <main+0x1e4>
    4298:	0116a023          	sw	a7,0(a3)
    429c:	00064883          	lbu	a7,0(a2)
    42a0:	fe6614e3          	bne	a2,t1,4288 <main+0x1e0>
    42a4:	000da883          	lw	a7,0(s11)
    42a8:	14089463          	bnez	a7,43f0 <main+0x348>
    42ac:	00004737          	lui	a4,0x4
    42b0:	04f00893          	li	a7,79
    42b4:	4a070613          	addi	a2,a4,1184 # 44a0 <main+0x3f8>
    42b8:	00160613          	addi	a2,a2,1
    42bc:	0007a703          	lw	a4,0(a5)
    42c0:	00277713          	andi	a4,a4,2
    42c4:	fe070ce3          	beqz	a4,42bc <main+0x214>
    42c8:	0116a023          	sw	a7,0(a3)
    42cc:	00064883          	lbu	a7,0(a2)
    42d0:	ffc614e3          	bne	a2,t3,42b8 <main+0x210>
    42d4:	f29ff06f          	j	41fc <main+0x154>
    42d8:	00004737          	lui	a4,0x4
    42dc:	04c00e93          	li	t4,76
    42e0:	47470893          	addi	a7,a4,1140 # 4474 <main+0x3cc>
    42e4:	00188893          	addi	a7,a7,1
    42e8:	0007a703          	lw	a4,0(a5)
    42ec:	00277713          	andi	a4,a4,2
    42f0:	fe070ce3          	beqz	a4,42e8 <main+0x240>
    42f4:	01d6a023          	sw	t4,0(a3)
    42f8:	0008ce83          	lbu	t4,0(a7)
    42fc:	fe8894e3          	bne	a7,s0,42e4 <main+0x23c>
    4300:	01c00893          	li	a7,28
    4304:	01155733          	srl	a4,a0,a7
    4308:	00f77713          	andi	a4,a4,15
    430c:	03770e93          	addi	t4,a4,55
    4310:	00efe463          	bltu	t6,a4,4318 <main+0x270>
    4314:	03070e93          	addi	t4,a4,48
    4318:	0007a703          	lw	a4,0(a5)
    431c:	00277713          	andi	a4,a4,2
    4320:	fe070ce3          	beqz	a4,4318 <main+0x270>
    4324:	01d6a023          	sw	t4,0(a3)
    4328:	ffc88893          	addi	a7,a7,-4
    432c:	fde89ce3          	bne	a7,t5,4304 <main+0x25c>
    4330:	00004737          	lui	a4,0x4
    4334:	02000e93          	li	t4,32
    4338:	47c70893          	addi	a7,a4,1148 # 447c <main+0x3d4>
    433c:	00188893          	addi	a7,a7,1
    4340:	0007a703          	lw	a4,0(a5)
    4344:	00277713          	andi	a4,a4,2
    4348:	fe070ce3          	beqz	a4,4340 <main+0x298>
    434c:	01d6a023          	sw	t4,0(a3)
    4350:	0008ce83          	lbu	t4,0(a7)
    4354:	fe7894e3          	bne	a7,t2,433c <main+0x294>
    4358:	00c00893          	li	a7,12
    435c:	41165733          	sra	a4,a2,a7
    4360:	00f77713          	andi	a4,a4,15
    4364:	03770e93          	addi	t4,a4,55
    4368:	00efe463          	bltu	t6,a4,4370 <main+0x2c8>
    436c:	03070e93          	addi	t4,a4,48
    4370:	0007a703          	lw	a4,0(a5)
    4374:	00277713          	andi	a4,a4,2
    4378:	fe070ce3          	beqz	a4,4370 <main+0x2c8>
    437c:	01d6a023          	sw	t4,0(a3)
    4380:	ffc88893          	addi	a7,a7,-4
    4384:	fde89ce3          	bne	a7,t5,435c <main+0x2b4>
    4388:	00004737          	lui	a4,0x4
    438c:	02000893          	li	a7,32
    4390:	48470613          	addi	a2,a4,1156 # 4484 <main+0x3dc>
    4394:	00160613          	addi	a2,a2,1
    4398:	0007a703          	lw	a4,0(a5)
    439c:	00277713          	andi	a4,a4,2
    43a0:	fe070ce3          	beqz	a4,4398 <main+0x2f0>
    43a4:	0116a023          	sw	a7,0(a3)
    43a8:	00064883          	lbu	a7,0(a2)
    43ac:	fe5614e3          	bne	a2,t0,4394 <main+0x2ec>
    43b0:	03080613          	addi	a2,a6,48
    43b4:	0007a703          	lw	a4,0(a5)
    43b8:	00277713          	andi	a4,a4,2
    43bc:	fe070ce3          	beqz	a4,43b4 <main+0x30c>
    43c0:	00c6a023          	sw	a2,0(a3)
    43c4:	0007a703          	lw	a4,0(a5)
    43c8:	00277713          	andi	a4,a4,2
    43cc:	fe070ce3          	beqz	a4,43c4 <main+0x31c>
    43d0:	00d00713          	li	a4,13
    43d4:	00e6a023          	sw	a4,0(a3)
    43d8:	0007a703          	lw	a4,0(a5)
    43dc:	00277713          	andi	a4,a4,2
    43e0:	fe070ce3          	beqz	a4,43d8 <main+0x330>
    43e4:	00a00713          	li	a4,10
    43e8:	00e6a023          	sw	a4,0(a3)
    43ec:	e55ff06f          	j	4240 <main+0x198>
    43f0:	00004737          	lui	a4,0x4
    43f4:	04600e93          	li	t4,70
    43f8:	4a870613          	addi	a2,a4,1192 # 44a8 <main+0x400>
    43fc:	00160613          	addi	a2,a2,1
    4400:	0007a703          	lw	a4,0(a5)
    4404:	00277713          	andi	a4,a4,2
    4408:	fe070ce3          	beqz	a4,4400 <main+0x358>
    440c:	01d6a023          	sw	t4,0(a3)
    4410:	00064e83          	lbu	t4,0(a2)
    4414:	ffa614e3          	bne	a2,s10,43fc <main+0x354>
    4418:	01c00613          	li	a2,28
    441c:	00c8d733          	srl	a4,a7,a2
    4420:	00f77713          	andi	a4,a4,15
    4424:	03770e93          	addi	t4,a4,55
    4428:	00efe463          	bltu	t6,a4,4430 <main+0x388>
    442c:	03070e93          	addi	t4,a4,48
    4430:	0007a703          	lw	a4,0(a5)
    4434:	00277713          	andi	a4,a4,2
    4438:	fe070ce3          	beqz	a4,4430 <main+0x388>
    443c:	01d6a023          	sw	t4,0(a3)
    4440:	ffc60613          	addi	a2,a2,-4
    4444:	fde61ce3          	bne	a2,t5,441c <main+0x374>
    4448:	0007a703          	lw	a4,0(a5)
    444c:	00277713          	andi	a4,a4,2
    4450:	fe070ce3          	beqz	a4,4448 <main+0x3a0>
    4454:	00d00713          	li	a4,13
    4458:	00e6a023          	sw	a4,0(a3)
    445c:	0007a703          	lw	a4,0(a5)
    4460:	00277713          	andi	a4,a4,2
    4464:	fe070ce3          	beqz	a4,445c <main+0x3b4>
    4468:	00a00713          	li	a4,10
    446c:	00e6a023          	sw	a4,0(a3)
    4470:	d8dff06f          	j	41fc <main+0x154>
    4474:	6f4c                	.insn	2, 0x6f4c
    4476:	203a706f          	j	abe78 <_end+0x8ce78>
    447a:	0000                	.insn	2, 0x0000
    447c:	5020                	.insn	2, 0x5020
    447e:	203a4d57          	.insn	4, 0x203a4d57
    4482:	0000                	.insn	2, 0x0000
    4484:	4c20                	.insn	2, 0x4c20
    4486:	4445                	.insn	2, 0x4445
    4488:	203a                	.insn	2, 0x203a
    448a:	0000                	.insn	2, 0x0000
    448c:	7250                	.insn	2, 0x7250
    448e:	6365746f          	jal	s0,5bac4 <_end+0x3cac4>
    4492:	6974                	.insn	2, 0x6974
    4494:	63206e6f          	jal	t3,aac6 <__global_pointer$+0x5d16>
    4498:	6568                	.insn	2, 0x6568
    449a:	203a6b63          	bltu	s4,gp,46b0 <_etext+0x100>
    449e:	0000                	.insn	2, 0x0000
    44a0:	0a0d4b4f          	.insn	4, 0x0a0d4b4f
    44a4:	0000                	.insn	2, 0x0000
    44a6:	0000                	.insn	2, 0x0000
    44a8:	4146                	.insn	2, 0x4146
    44aa:	4c55                	.insn	2, 0x4c55
    44ac:	3a54                	.insn	2, 0x3a54
    44ae:	0020                	.insn	2, 0x0020
    44b0:	0a0d                	.insn	2, 0x0a0d
    44b2:	0000                	.insn	2, 0x0000
    44b4:	3d3d                	.insn	2, 0x3d3d
    44b6:	3d3d                	.insn	2, 0x3d3d
    44b8:	3d3d                	.insn	2, 0x3d3d
    44ba:	3d3d                	.insn	2, 0x3d3d
    44bc:	3d3d                	.insn	2, 0x3d3d
    44be:	3d3d                	.insn	2, 0x3d3d
    44c0:	3d3d                	.insn	2, 0x3d3d
    44c2:	3d3d                	.insn	2, 0x3d3d
    44c4:	3d3d                	.insn	2, 0x3d3d
    44c6:	3d3d                	.insn	2, 0x3d3d
    44c8:	3d3d                	.insn	2, 0x3d3d
    44ca:	3d3d                	.insn	2, 0x3d3d
    44cc:	3d3d                	.insn	2, 0x3d3d
    44ce:	3d3d                	.insn	2, 0x3d3d
    44d0:	3d3d                	.insn	2, 0x3d3d
    44d2:	3d3d                	.insn	2, 0x3d3d
    44d4:	3d3d                	.insn	2, 0x3d3d
    44d6:	3d3d                	.insn	2, 0x3d3d
    44d8:	3d3d                	.insn	2, 0x3d3d
    44da:	3d3d                	.insn	2, 0x3d3d
    44dc:	3d3d                	.insn	2, 0x3d3d
    44de:	0d3d                	.insn	2, 0x0d3d
    44e0:	000a                	.insn	2, 0x000a
    44e2:	0000                	.insn	2, 0x0000
    44e4:	2020                	.insn	2, 0x2020
    44e6:	20424843          	.insn	4, 0x20424843
    44ea:	6554                	.insn	2, 0x6554
    44ec:	41207473          	csrrci	s0,0x412,0
    44f0:	7070                	.insn	2, 0x7070
    44f2:	696c                	.insn	2, 0x696c
    44f4:	69746163          	bltu	s0,s7,4b76 <_etext+0x5c6>
    44f8:	76206e6f          	jal	t3,ac5a <__global_pointer$+0x5eaa>
    44fc:	2e31                	.insn	2, 0x2e31
    44fe:	2e30                	.insn	2, 0x2e30
    4500:	0d30                	.insn	2, 0x0d30
    4502:	000a                	.insn	2, 0x000a
    4504:	2020                	.insn	2, 0x2020
    4506:	6f4c                	.insn	2, 0x6f4c
    4508:	6461                	.insn	2, 0x6461
    450a:	6465                	.insn	2, 0x6465
    450c:	7620                	.insn	2, 0x7620
    450e:	6169                	.insn	2, 0x6169
    4510:	5220                	.insn	2, 0x5220
    4512:	3356                	.insn	2, 0x3356
    4514:	4932                	.insn	2, 0x4932
    4516:	5a4d                	.insn	2, 0x5a4d
    4518:	4220                	.insn	2, 0x4220
    451a:	6c746f6f          	jal	t5,4b3e0 <_end+0x2c3e0>
    451e:	6564616f          	jal	sp,4ab74 <_end+0x2bb74>
    4522:	0d72                	.insn	2, 0x0d72
    4524:	000a                	.insn	2, 0x000a
    4526:	0000                	.insn	2, 0x0000
    4528:	6148                	.insn	2, 0x6148
    452a:	6472                	.insn	2, 0x6472
    452c:	65726177          	.insn	4, 0x65726177
    4530:	203a                	.insn	2, 0x203a
    4532:	5652                	.insn	2, 0x5652
    4534:	4d493233          	.insn	4, 0x4d493233
    4538:	205a                	.insn	2, 0x205a
    453a:	20436f53          	.insn	4, 0x20436f53
    453e:	2040                	.insn	2, 0x2040
    4540:	3035                	.insn	2, 0x3035
    4542:	484d                	.insn	2, 0x484d
    4544:	0d7a                	.insn	2, 0x0d7a
    4546:	000a                	.insn	2, 0x000a
    4548:	7041                	.insn	2, 0x7041
    454a:	6c70                	.insn	2, 0x6c70
    454c:	6369                	.insn	2, 0x6369
    454e:	7461                	.insn	2, 0x7461
    4550:	6f69                	.insn	2, 0x6f69
    4552:	3a6e                	.insn	2, 0x3a6e
    4554:	3520                	.insn	2, 0x3520
    4556:	4c2d                	.insn	2, 0x4c2d
    4558:	7665                	.insn	2, 0x7665
    455a:	6c65                	.insn	2, 0x6c65
    455c:	4320                	.insn	2, 0x4320
    455e:	4248                	.insn	2, 0x4248
    4560:	4920                	.insn	2, 0x4920
    4562:	766e                	.insn	2, 0x766e
    4564:	7265                	.insn	2, 0x7265
    4566:	6574                	.insn	2, 0x6574
    4568:	2072                	.insn	2, 0x2072
    456a:	6554                	.insn	2, 0x6554
    456c:	0a0d7473          	csrrci	s0,0xa0,26
    4570:	0000                	.insn	2, 0x0000
    4572:	0000                	.insn	2, 0x0000
    4574:	6e49                	.insn	2, 0x6e49
    4576:	7469                	.insn	2, 0x7469
    4578:	6169                	.insn	2, 0x6169
    457a:	696c                	.insn	2, 0x696c
    457c:	617a                	.insn	2, 0x617a
    457e:	6974                	.insn	2, 0x6974
    4580:	63206e6f          	jal	t3,abb2 <__global_pointer$+0x5e02>
    4584:	6c706d6f          	jal	s10,b44a <__global_pointer$+0x669a>
    4588:	7465                	.insn	2, 0x7465
    458a:	2165                	.insn	2, 0x2165
    458c:	0a0d                	.insn	2, 0x0a0d
    458e:	0000                	.insn	2, 0x0000
    4590:	72617453          	.insn	4, 0x72617453
    4594:	6974                	.insn	2, 0x6974
    4596:	676e                	.insn	2, 0x676e
    4598:	7420                	.insn	2, 0x7420
    459a:	7365                	.insn	2, 0x7365
    459c:	2074                	.insn	2, 0x2074
    459e:	75716573          	csrrsi	a0,0x757,2
    45a2:	6e65                	.insn	2, 0x6e65
    45a4:	2e2e6563          	bltu	t3,sp,488e <_etext+0x2de>
    45a8:	0d2e                	.insn	2, 0x0d2e
    45aa:	0d0a                	.insn	2, 0x0d0a
    45ac:	000a                	.insn	2, 0x000a
	...
